target datalayout = "e-m:e-p270:32:32-p271:32:32-p272:64:64-i64:64-i128:128-f80:128-n8:16:32:64-S128"
target triple = "x86_64-pc-linux-gnu"

%"class.net::SpdyFramerVisitorAdapter" = type { %"class.net::SpdyFramerVisitorInterface", ptr, ptr }
%"class.net::SpdyFramerVisitorInterface" = type { ptr }

; Function Attrs: mustprogress uwtable
define noundef zeroext i1 @_ZN3net24SpdyFramerVisitorAdapter24OnControlFrameHeaderDataEjPKcm(ptr noundef nonnull align 8 dereferenceable(24) %0, i32 noundef %1, ptr noundef %2, i64 noundef %3) unnamed_addr #2 align 2 {
  %5 = alloca ptr, align 8
  %6 = alloca i32, align 4
  %7 = alloca ptr, align 8
  %8 = alloca i64, align 8
  store ptr %0, ptr %5, align 8, !tbaa !22
  store i32 %1, ptr %6, align 4, !tbaa !30
  store ptr %2, ptr %7, align 8, !tbaa !34
  store i64 %3, ptr %8, align 8, !tbaa !32
  %9 = load ptr, ptr %5, align 8
  %10 = getelementptr inbounds nuw %"class.net::SpdyFramerVisitorAdapter", ptr %9, i32 0, i32 1
  %11 = load ptr, ptr %10, align 8, !tbaa !26
  %12 = load i32, ptr %6, align 4, !tbaa !30
  %13 = load ptr, ptr %7, align 8, !tbaa !34
  %14 = load i64, ptr %8, align 8, !tbaa !32
  %15 = load ptr, ptr %11, align 8, !tbaa !8
  %16 = getelementptr inbounds ptr, ptr %15, i64 10
  %17 = load ptr, ptr %16, align 8
  %18 = call noundef zeroext i1 %17(ptr noundef nonnull align 8 dereferenceable(8) %11, i32 noundef %12, ptr noundef %13, i64 noundef %14)
  ret i1 %18
}